; Function Attrs: nofree norecurse nosync nounwind memory(readwrite, inaccessiblemem: none) uwtable
define internal void @quantize3_ord_dither(ptr noundef readonly captures(none) %0, ptr noundef readonly captures(none) %1, ptr noundef readonly captures(none) %2, i32 noundef %3) #3 {
  %5 = getelementptr inbounds nuw i8, ptr %0, i64 624
  %6 = load ptr, ptr %5, align 8, !tbaa !42
  %7 = getelementptr inbounds nuw i8, ptr %6, i64 56
  %8 = load ptr, ptr %7, align 8, !tbaa !84
  %9 = load ptr, ptr %8, align 8, !tbaa !63
  %10 = getelementptr inbounds nuw i8, ptr %8, i64 8
  %11 = load ptr, ptr %10, align 8, !tbaa !63
  %12 = getelementptr inbounds nuw i8, ptr %8, i64 16
  %13 = load ptr, ptr %12, align 8, !tbaa !63
  %14 = getelementptr inbounds nuw i8, ptr %0, i64 136
  %15 = load i32, ptr %14, align 8, !tbaa !70
  %16 = icmp sgt i32 %3, 0
  br i1 %16, label %.lr.ph52, label %._crit_edge53

.lr.ph52:                                         ; preds = %4
  %17 = getelementptr inbounds nuw i8, ptr %6, i64 84
  %18 = getelementptr inbounds nuw i8, ptr %6, i64 88
  %19 = getelementptr inbounds nuw i8, ptr %6, i64 96
  %20 = getelementptr inbounds nuw i8, ptr %6, i64 104
  %.not45 = icmp eq i32 %15, 0
  br i1 %.not45, label %.lr.ph52.split.us, label %.lr.ph.preheader

.lr.ph.preheader:                                 ; preds = %.lr.ph52
  %wide.trip.count = zext nneg i32 %3 to i64
  %.pre = load i32, ptr %17, align 4, !tbaa !76
  br label %.lr.ph

.lr.ph52.split.us:                                ; preds = %.lr.ph52
  %.promoted = load i32, ptr %17, align 4, !tbaa !76
  br label %21

21:                                               ; preds = %21, %.lr.ph52.split.us
  %22 = phi i32 [ %.promoted, %.lr.ph52.split.us ], [ %24, %21 ]
  %.04250.us = phi i32 [ 0, %.lr.ph52.split.us ], [ %25, %21 ]
  %23 = add nsw i32 %22, 1
  %24 = and i32 %23, 15
  %25 = add nuw nsw i32 %.04250.us, 1
  %exitcond55.not = icmp eq i32 %25, %3
  br i1 %exitcond55.not, label %._crit_edge53.split.us, label %21, !llvm.loop !94

._crit_edge53.split.us:                           ; preds = %21
  store i32 %24, ptr %17, align 4, !tbaa !76
  br label %._crit_edge53

.lr.ph:                                           ; preds = %.lr.ph.preheader, %._crit_edge
  %26 = phi i32 [ %.pre, %.lr.ph.preheader ], [ %74, %._crit_edge ]
  %indvars.iv = phi i64 [ 0, %.lr.ph.preheader ], [ %indvars.iv.next, %._crit_edge ]
  %27 = getelementptr inbounds nuw ptr, ptr %1, i64 %indvars.iv
  %28 = load ptr, ptr %27, align 8, !tbaa !63
  %29 = getelementptr inbounds nuw ptr, ptr %2, i64 %indvars.iv
  %30 = load ptr, ptr %29, align 8, !tbaa !63
  %31 = load ptr, ptr %18, align 8, !tbaa !50
  %32 = sext i32 %26 to i64
  %33 = getelementptr inbounds [16 x i32], ptr %31, i64 %32
  %34 = load ptr, ptr %19, align 8, !tbaa !50
  %35 = getelementptr inbounds [16 x i32], ptr %34, i64 %32
  %36 = load ptr, ptr %20, align 8, !tbaa !50
  %37 = getelementptr inbounds [16 x i32], ptr %36, i64 %32
  br label %38

38:                                               ; preds = %.lr.ph, %38
  %.049 = phi ptr [ %28, %.lr.ph ], [ %59, %38 ]
  %.04148 = phi i32 [ %15, %.lr.ph ], [ %72, %38 ]
  %.04347 = phi i32 [ 0, %.lr.ph ], [ %71, %38 ]
  %.04446 = phi ptr [ %30, %.lr.ph ], [ %69, %38 ]
  %39 = getelementptr inbounds nuw i8, ptr %.049, i64 1
  %40 = load i8, ptr %.049, align 1, !tbaa !34
  %41 = zext i8 %40 to i32
  %42 = zext nneg i32 %.04347 to i64
  %43 = getelementptr inbounds nuw i32, ptr %33, i64 %42
  %44 = load i32, ptr %43, align 4, !tbaa !54
  %45 = add nsw i32 %44, %41
  %46 = sext i32 %45 to i64
  %47 = getelementptr inbounds i8, ptr %9, i64 %46
  %48 = load i8, ptr %47, align 1, !tbaa !34
  %49 = getelementptr inbounds nuw i8, ptr %.049, i64 2
  %50 = load i8, ptr %39, align 1, !tbaa !34
  %51 = zext i8 %50 to i32
  %52 = getelementptr inbounds nuw i32, ptr %35, i64 %42
  %53 = load i32, ptr %52, align 4, !tbaa !54
  %54 = add nsw i32 %53, %51
  %55 = sext i32 %54 to i64
  %56 = getelementptr inbounds i8, ptr %11, i64 %55
  %57 = load i8, ptr %56, align 1, !tbaa !34
  %58 = add i8 %57, %48
  %59 = getelementptr inbounds nuw i8, ptr %.049, i64 3
  %60 = load i8, ptr %49, align 1, !tbaa !34
  %61 = zext i8 %60 to i32
  %62 = getelementptr inbounds nuw i32, ptr %37, i64 %42
  %63 = load i32, ptr %62, align 4, !tbaa !54
  %64 = add nsw i32 %63, %61
  %65 = sext i32 %64 to i64
  %66 = getelementptr inbounds i8, ptr %13, i64 %65
  %67 = load i8, ptr %66, align 1, !tbaa !34
  %68 = add i8 %58, %67
  %69 = getelementptr inbounds nuw i8, ptr %.04446, i64 1
  store i8 %68, ptr %.04446, align 1, !tbaa !34
  %70 = add nuw nsw i32 %.04347, 1
  %71 = and i32 %70, 15
  %72 = add i32 %.04148, -1
  %.not = icmp eq i32 %72, 0
  br i1 %.not, label %._crit_edge, label %38, !llvm.loop !95

._crit_edge:                                      ; preds = %38
  %73 = add nsw i32 %26, 1
  %74 = and i32 %73, 15
  store i32 %74, ptr %17, align 4, !tbaa !76
  %indvars.iv.next = add nuw nsw i64 %indvars.iv, 1
  %exitcond.not = icmp eq i64 %indvars.iv.next, %wide.trip.count
  br i1 %exitcond.not, label %._crit_edge53, label %.lr.ph, !llvm.loop !94

._crit_edge53:                                    ; preds = %._crit_edge, %._crit_edge53.split.us, %4
  ret void
}